target datalayout = "e-m:e-p270:32:32-p271:32:32-p272:64:64-i64:64-i128:128-f80:128-n8:16:32:64-S128"
target triple = "x86_64-pc-linux-gnu"

%union.pthread_mutex_t = type { %struct.__pthread_mutex_s }
%struct.__pthread_mutex_s = type { i32, i32, i32, i32, i32, i16, i16, %struct.__pthread_internal_list }
%struct.__pthread_internal_list = type { ptr, ptr }
%struct.hostlist = type { i32, %union.pthread_mutex_t, i32, i32, i32, ptr, ptr }
%struct.hostrange_t = type { ptr, i64, i64, i32, i8 }
%struct.hostlist_iterator = type { i32, ptr, i32, ptr, i32, ptr }

@alpha_num = dso_local global ptr @.str, align 8
@.str.3 = private unnamed_addr constant [29 x i8] c"%s: pthread_mutex_lock(): %m\00", align 1
@.str.4 = private unnamed_addr constant [31 x i8] c"%s: pthread_mutex_unlock(): %m\00", align 1
@.str.11 = private unnamed_addr constant [3 x i8] c"%s\00", align 1
@__func__.hostlist_next_dims = private unnamed_addr constant [19 x i8] c"hostlist_next_dims\00", align 1
@.str.12 = private unnamed_addr constant [6 x i8] c"%0*lu\00", align 1

; Function Attrs: nounwind uwtable
define dso_local void @hostlist_parse_int_to_array(i32 noundef %0, ptr noundef %1, i32 noundef %2, i32 noundef %3) #0 {
  %5 = alloca i32, align 4
  %6 = alloca ptr, align 8
  %7 = alloca i32, align 4
  %8 = alloca i32, align 4
  %9 = alloca i32, align 4
  store i32 %0, ptr %5, align 4
  store ptr %1, ptr %6, align 8
  store i32 %2, ptr %7, align 4
  store i32 %3, ptr %8, align 4
  call void @llvm.lifetime.start.p0(i64 4, ptr %9) #13
  %10 = load i32, ptr %8, align 4
  %11 = icmp ne i32 %10, 0
  br i1 %11, label %12, label %14

12:                                               ; preds = %4
  %13 = load i32, ptr %8, align 4
  br label %18

14:                                               ; preds = %4
  %15 = load i32, ptr %7, align 4
  %16 = icmp sgt i32 %15, 1
  %17 = select i1 %16, i32 36, i32 10
  br label %18

18:                                               ; preds = %14, %12
  %19 = phi i32 [ %13, %12 ], [ %17, %14 ]
  store i32 %19, ptr %9, align 4
  br label %20

20:                                               ; preds = %32, %18
  %21 = load i32, ptr %7, align 4
  %22 = add nsw i32 %21, -1
  store i32 %22, ptr %7, align 4
  %23 = icmp sge i32 %22, 0
  br i1 %23, label %24, label %36

24:                                               ; preds = %20
  %25 = load i32, ptr %5, align 4
  %26 = load i32, ptr %9, align 4
  %27 = srem i32 %25, %26
  %28 = load ptr, ptr %6, align 8
  %29 = load i32, ptr %7, align 4
  %30 = sext i32 %29 to i64
  %31 = getelementptr inbounds i32, ptr %28, i64 %30
  store i32 %27, ptr %31, align 4
  br label %32

32:                                               ; preds = %24
  %33 = load i32, ptr %9, align 4
  %34 = load i32, ptr %5, align 4
  %35 = sdiv i32 %34, %33
  store i32 %35, ptr %5, align 4
  br label %20, !llvm.loop !48

36:                                               ; preds = %20
  call void @llvm.lifetime.end.p0(i64 4, ptr %9) #13
  ret void
}

; Function Attrs: nounwind uwtable
define internal void @_iterator_advance(ptr noundef %0) #0 {
  %2 = alloca ptr, align 8
  store ptr %0, ptr %2, align 8
  %3 = load ptr, ptr %2, align 8
  %4 = getelementptr inbounds nuw %struct.hostlist_iterator, ptr %3, i32 0, i32 2
  %5 = load i32, ptr %4, align 8
  %6 = load ptr, ptr %2, align 8
  %7 = getelementptr inbounds nuw %struct.hostlist_iterator, ptr %6, i32 0, i32 1
  %8 = load ptr, ptr %7, align 8
  %9 = getelementptr inbounds nuw %struct.hostlist, ptr %8, i32 0, i32 3
  %10 = load i32, ptr %9, align 4
  %11 = sub nsw i32 %10, 1
  %12 = icmp sgt i32 %5, %11
  br i1 %12, label %13, label %14

13:                                               ; preds = %1
  br label %49

14:                                               ; preds = %1
  %15 = load ptr, ptr %2, align 8
  %16 = getelementptr inbounds nuw %struct.hostlist_iterator, ptr %15, i32 0, i32 4
  %17 = load i32, ptr %16, align 8
  %18 = add nsw i32 %17, 1
  store i32 %18, ptr %16, align 8
  %19 = sext i32 %18 to i64
  %20 = load ptr, ptr %2, align 8
  %21 = getelementptr inbounds nuw %struct.hostlist_iterator, ptr %20, i32 0, i32 3
  %22 = load ptr, ptr %21, align 8
  %23 = getelementptr inbounds nuw %struct.hostrange_t, ptr %22, i32 0, i32 2
  %24 = load i64, ptr %23, align 8
  %25 = load ptr, ptr %2, align 8
  %26 = getelementptr inbounds nuw %struct.hostlist_iterator, ptr %25, i32 0, i32 3
  %27 = load ptr, ptr %26, align 8
  %28 = getelementptr inbounds nuw %struct.hostrange_t, ptr %27, i32 0, i32 1
  %29 = load i64, ptr %28, align 8
  %30 = sub i64 %24, %29
  %31 = icmp ugt i64 %19, %30
  br i1 %31, label %32, label %49

32:                                               ; preds = %14
  %33 = load ptr, ptr %2, align 8
  %34 = getelementptr inbounds nuw %struct.hostlist_iterator, ptr %33, i32 0, i32 4
  store i32 0, ptr %34, align 8
  %35 = load ptr, ptr %2, align 8
  %36 = getelementptr inbounds nuw %struct.hostlist_iterator, ptr %35, i32 0, i32 1
  %37 = load ptr, ptr %36, align 8
  %38 = getelementptr inbounds nuw %struct.hostlist, ptr %37, i32 0, i32 5
  %39 = load ptr, ptr %38, align 8
  %40 = load ptr, ptr %2, align 8
  %41 = getelementptr inbounds nuw %struct.hostlist_iterator, ptr %40, i32 0, i32 2
  %42 = load i32, ptr %41, align 8
  %43 = add nsw i32 %42, 1
  store i32 %43, ptr %41, align 8
  %44 = sext i32 %43 to i64
  %45 = getelementptr inbounds ptr, ptr %39, i64 %44
  %46 = load ptr, ptr %45, align 8
  %47 = load ptr, ptr %2, align 8
  %48 = getelementptr inbounds nuw %struct.hostlist_iterator, ptr %47, i32 0, i32 3
  store ptr %46, ptr %48, align 8
  br label %49

49:                                               ; preds = %13, %32, %14
  ret void
}

; Function Attrs: nounwind uwtable
define dso_local ptr @hostlist_next_dims(ptr noundef %0, i32 noundef %1) #0 {
  %3 = alloca ptr, align 8
  %4 = alloca ptr, align 8
  %5 = alloca i32, align 4
  %6 = alloca [80 x i8], align 16
  %7 = alloca i32, align 4
  %8 = alloca i32, align 4
  %9 = alloca i32, align 4
  %10 = alloca i32, align 4
  %11 = alloca ptr, align 8
  %12 = alloca i64, align 8
  %13 = alloca i32, align 4
  %14 = alloca i32, align 4
  %15 = alloca i32, align 4
  store ptr %0, ptr %4, align 8
  store i32 %1, ptr %5, align 4
  call void @llvm.lifetime.start.p0(i64 80, ptr %6) #13
  call void @llvm.lifetime.start.p0(i64 4, ptr %7) #13
  store i32 80, ptr %7, align 4
  call void @llvm.lifetime.start.p0(i64 4, ptr %8) #13
  store i32 0, ptr %8, align 4
  br label %16

16:                                               ; preds = %2
  br label %17

17:                                               ; preds = %16
  call void @llvm.lifetime.start.p0(i64 4, ptr %9) #13
  %18 = load ptr, ptr %4, align 8
  %19 = getelementptr inbounds nuw %struct.hostlist_iterator, ptr %18, i32 0, i32 1
  %20 = load ptr, ptr %19, align 8
  %21 = getelementptr inbounds nuw %struct.hostlist, ptr %20, i32 0, i32 1
  %22 = call i32 @pthread_mutex_lock(ptr noundef %21) #13
  store i32 %22, ptr %9, align 4
  %23 = load i32, ptr %9, align 4
  %24 = icmp ne i32 %23, 0
  br i1 %24, label %25, label %28

25:                                               ; preds = %17
  %26 = load i32, ptr %9, align 4
  %27 = call ptr @__errno_location() #14
  store i32 %26, ptr %27, align 4
  call void (ptr, ...) @fatal_abort(ptr noundef @.str.3, ptr noundef @__func__.hostlist_next_dims) #15
  unreachable

28:                                               ; preds = %17
  call void @llvm.lifetime.end.p0(i64 4, ptr %9) #13
  br label %29

29:                                               ; preds = %28
  br label %30

30:                                               ; preds = %29
  br label %31

31:                                               ; preds = %30
  br label %32

32:                                               ; preds = %31
  %33 = load ptr, ptr %4, align 8
  call void @_iterator_advance(ptr noundef %33)
  %34 = load i32, ptr %5, align 4
  %35 = icmp ne i32 %34, 0
  br i1 %35, label %39, label %36

36:                                               ; preds = %32
  %37 = call zeroext i16 @slurmdb_setup_cluster_dims()
  %38 = zext i16 %37 to i32
  store i32 %38, ptr %5, align 4
  br label %39

39:                                               ; preds = %36, %32
  %40 = load ptr, ptr %4, align 8
  %41 = getelementptr inbounds nuw %struct.hostlist_iterator, ptr %40, i32 0, i32 2
  %42 = load i32, ptr %41, align 8
  %43 = load ptr, ptr %4, align 8
  %44 = getelementptr inbounds nuw %struct.hostlist_iterator, ptr %43, i32 0, i32 1
  %45 = load ptr, ptr %44, align 8
  %46 = getelementptr inbounds nuw %struct.hostlist, ptr %45, i32 0, i32 3
  %47 = load i32, ptr %46, align 4
  %48 = sub nsw i32 %47, 1
  %49 = icmp sgt i32 %42, %48
  br i1 %49, label %50, label %51

50:                                               ; preds = %39
  br label %177

51:                                               ; preds = %39
  %52 = getelementptr inbounds [80 x i8], ptr %6, i64 0, i64 0
  %53 = load ptr, ptr %4, align 8
  %54 = getelementptr inbounds nuw %struct.hostlist_iterator, ptr %53, i32 0, i32 3
  %55 = load ptr, ptr %54, align 8
  %56 = getelementptr inbounds nuw %struct.hostrange_t, ptr %55, i32 0, i32 0
  %57 = load ptr, ptr %56, align 8
  %58 = call i32 (ptr, i64, ptr, ...) @snprintf(ptr noundef %52, i64 noundef 80, ptr noundef @.str.11, ptr noundef %57) #13
  store i32 %58, ptr %8, align 4
  %59 = load i32, ptr %8, align 4
  %60 = icmp slt i32 %59, 0
  br i1 %60, label %66, label %61

61:                                               ; preds = %51
  %62 = load i32, ptr %8, align 4
  %63 = load i32, ptr %5, align 4
  %64 = add nsw i32 %62, %63
  %65 = icmp sge i32 %64, 80
  br i1 %65, label %66, label %67

66:                                               ; preds = %61, %51
  br label %177

67:                                               ; preds = %61
  %68 = load ptr, ptr %4, align 8
  %69 = getelementptr inbounds nuw %struct.hostlist_iterator, ptr %68, i32 0, i32 3
  %70 = load ptr, ptr %69, align 8
  %71 = getelementptr inbounds nuw %struct.hostrange_t, ptr %70, i32 0, i32 4
  %72 = load i8, ptr %71, align 4, !range !12, !noundef !13
  %73 = trunc i8 %72 to i1
  br i1 %73, label %157, label %74

74:                                               ; preds = %67
  %75 = load i32, ptr %5, align 4
  %76 = icmp sgt i32 %75, 1
  br i1 %76, label %77, label %125

77:                                               ; preds = %74
  %78 = load ptr, ptr %4, align 8
  %79 = getelementptr inbounds nuw %struct.hostlist_iterator, ptr %78, i32 0, i32 3
  %80 = load ptr, ptr %79, align 8
  %81 = getelementptr inbounds nuw %struct.hostrange_t, ptr %80, i32 0, i32 3
  %82 = load i32, ptr %81, align 8
  %83 = load i32, ptr %5, align 4
  %84 = icmp eq i32 %82, %83
  br i1 %84, label %85, label %125

85:                                               ; preds = %77
  call void @llvm.lifetime.start.p0(i64 4, ptr %10) #13
  store i32 0, ptr %10, align 4
  %86 = load i32, ptr %5, align 4
  %87 = zext i32 %86 to i64
  %88 = call ptr @llvm.stacksave.p0()
  store ptr %88, ptr %11, align 8
  %89 = alloca i32, i64 %87, align 16
  store i64 %87, ptr %12, align 8
  %90 = load ptr, ptr %4, align 8
  %91 = getelementptr inbounds nuw %struct.hostlist_iterator, ptr %90, i32 0, i32 3
  %92 = load ptr, ptr %91, align 8
  %93 = getelementptr inbounds nuw %struct.hostrange_t, ptr %92, i32 0, i32 1
  %94 = load i64, ptr %93, align 8
  %95 = load ptr, ptr %4, align 8
  %96 = getelementptr inbounds nuw %struct.hostlist_iterator, ptr %95, i32 0, i32 4
  %97 = load i32, ptr %96, align 8
  %98 = sext i32 %97 to i64
  %99 = add i64 %94, %98
  %100 = trunc i64 %99 to i32
  %101 = load i32, ptr %5, align 4
  call void @hostlist_parse_int_to_array(i32 noundef %100, ptr noundef %89, i32 noundef %101, i32 noundef 0)
  br label %102

102:                                              ; preds = %106, %85
  %103 = load i32, ptr %10, align 4
  %104 = load i32, ptr %5, align 4
  %105 = icmp slt i32 %103, %104
  br i1 %105, label %106, label %120

106:                                              ; preds = %102
  %107 = load ptr, ptr @alpha_num, align 8
  %108 = load i32, ptr %10, align 4
  %109 = add nsw i32 %108, 1
  store i32 %109, ptr %10, align 4
  %110 = sext i32 %108 to i64
  %111 = getelementptr inbounds i32, ptr %89, i64 %110
  %112 = load i32, ptr %111, align 4
  %113 = sext i32 %112 to i64
  %114 = getelementptr inbounds i8, ptr %107, i64 %113
  %115 = load i8, ptr %114, align 1
  %116 = load i32, ptr %8, align 4
  %117 = add nsw i32 %116, 1
  store i32 %117, ptr %8, align 4
  %118 = sext i32 %116 to i64
  %119 = getelementptr inbounds [80 x i8], ptr %6, i64 0, i64 %118
  store i8 %115, ptr %119, align 1
  br label %102, !llvm.loop !57

120:                                              ; preds = %102
  %121 = load i32, ptr %8, align 4
  %122 = sext i32 %121 to i64
  %123 = getelementptr inbounds [80 x i8], ptr %6, i64 0, i64 %122
  store i8 0, ptr %123, align 1
  %124 = load ptr, ptr %11, align 8
  call void @llvm.stackrestore.p0(ptr %124)
  call void @llvm.lifetime.end.p0(i64 4, ptr %10) #13
  br label %156

125:                                              ; preds = %77, %74
  %126 = getelementptr inbounds [80 x i8], ptr %6, i64 0, i64 0
  %127 = load i32, ptr %8, align 4
  %128 = sext i32 %127 to i64
  %129 = getelementptr inbounds i8, ptr %126, i64 %128
  %130 = load i32, ptr %8, align 4
  %131 = sub nsw i32 80, %130
  %132 = sext i32 %131 to i64
  %133 = load ptr, ptr %4, align 8
  %134 = getelementptr inbounds nuw %struct.hostlist_iterator, ptr %133, i32 0, i32 3
  %135 = load ptr, ptr %134, align 8
  %136 = getelementptr inbounds nuw %struct.hostrange_t, ptr %135, i32 0, i32 3
  %137 = load i32, ptr %136, align 8
  %138 = load ptr, ptr %4, align 8
  %139 = getelementptr inbounds nuw %struct.hostlist_iterator, ptr %138, i32 0, i32 3
  %140 = load ptr, ptr %139, align 8
  %141 = getelementptr inbounds nuw %struct.hostrange_t, ptr %140, i32 0, i32 1
  %142 = load i64, ptr %141, align 8
  %143 = load ptr, ptr %4, align 8
  %144 = getelementptr inbounds nuw %struct.hostlist_iterator, ptr %143, i32 0, i32 4
  %145 = load i32, ptr %144, align 8
  %146 = sext i32 %145 to i64
  %147 = add i64 %142, %146
  %148 = call i32 (ptr, i64, ptr, ...) @snprintf(ptr noundef %129, i64 noundef %132, ptr noundef @.str.12, i32 noundef %137, i64 noundef %147) #13
  store i32 %148, ptr %8, align 4
  %149 = load i32, ptr %8, align 4
  %150 = icmp slt i32 %149, 0
  br i1 %150, label %154, label %151

151:                                              ; preds = %125
  %152 = load i32, ptr %8, align 4
  %153 = icmp sge i32 %152, 80
  br i1 %153, label %154, label %155

154:                                              ; preds = %151, %125
  br label %177

155:                                              ; preds = %151
  br label %156

156:                                              ; preds = %155, %120
  br label %157

157:                                              ; preds = %156, %67
  br label %158

158:                                              ; preds = %157
  br label %159

159:                                              ; preds = %158
  call void @llvm.lifetime.start.p0(i64 4, ptr %13) #13
  %160 = load ptr, ptr %4, align 8
  %161 = getelementptr inbounds nuw %struct.hostlist_iterator, ptr %160, i32 0, i32 1
  %162 = load ptr, ptr %161, align 8
  %163 = getelementptr inbounds nuw %struct.hostlist, ptr %162, i32 0, i32 1
  %164 = call i32 @pthread_mutex_unlock(ptr noundef %163) #13
  store i32 %164, ptr %13, align 4
  %165 = load i32, ptr %13, align 4
  %166 = icmp ne i32 %165, 0
  br i1 %166, label %167, label %170

167:                                              ; preds = %159
  %168 = load i32, ptr %13, align 4
  %169 = call ptr @__errno_location() #14
  store i32 %168, ptr %169, align 4
  call void (ptr, ...) @fatal_abort(ptr noundef @.str.4, ptr noundef @__func__.hostlist_next_dims) #15
  unreachable

170:                                              ; preds = %159
  call void @llvm.lifetime.end.p0(i64 4, ptr %13) #13
  br label %171

171:                                              ; preds = %170
  br label %172

172:                                              ; preds = %171
  br label %173

173:                                              ; preds = %172
  br label %174

174:                                              ; preds = %173
  %175 = getelementptr inbounds [80 x i8], ptr %6, i64 0, i64 0
  %176 = call noalias ptr @strdup(ptr noundef %175) #13
  store ptr %176, ptr %3, align 8
  store i32 1, ptr %14, align 4
  br label %195

177:                                              ; preds = %154, %66, %50
  br label %178

178:                                              ; preds = %177
  br label %179

179:                                              ; preds = %178
  call void @llvm.lifetime.start.p0(i64 4, ptr %15) #13
  %180 = load ptr, ptr %4, align 8
  %181 = getelementptr inbounds nuw %struct.hostlist_iterator, ptr %180, i32 0, i32 1
  %182 = load ptr, ptr %181, align 8
  %183 = getelementptr inbounds nuw %struct.hostlist, ptr %182, i32 0, i32 1
  %184 = call i32 @pthread_mutex_unlock(ptr noundef %183) #13
  store i32 %184, ptr %15, align 4
  %185 = load i32, ptr %15, align 4
  %186 = icmp ne i32 %185, 0
  br i1 %186, label %187, label %190

187:                                              ; preds = %179
  %188 = load i32, ptr %15, align 4
  %189 = call ptr @__errno_location() #14
  store i32 %188, ptr %189, align 4
  call void (ptr, ...) @fatal_abort(ptr noundef @.str.4, ptr noundef @__func__.hostlist_next_dims) #15
  unreachable

190:                                              ; preds = %179
  call void @llvm.lifetime.end.p0(i64 4, ptr %15) #13
  br label %191

191:                                              ; preds = %190
  br label %192

192:                                              ; preds = %191
  br label %193

193:                                              ; preds = %192
  br label %194

194:                                              ; preds = %193
  store ptr null, ptr %3, align 8
  store i32 1, ptr %14, align 4
  br label %195

195:                                              ; preds = %194, %174
  call void @llvm.lifetime.end.p0(i64 4, ptr %8) #13
  call void @llvm.lifetime.end.p0(i64 4, ptr %7) #13
  call void @llvm.lifetime.end.p0(i64 80, ptr %6) #13
  %196 = load ptr, ptr %3, align 8
  ret ptr %196
}