; Function Attrs: nounwind uwtable
define dso_local noalias ptr @hostlist_next_dims(ptr noundef captures(none) %0, i32 noundef %1) local_unnamed_addr #0 {
  %3 = alloca [80 x i8], align 16
  call void @llvm.lifetime.start.p0(i64 80, ptr nonnull %3) #22
  %4 = getelementptr inbounds nuw i8, ptr %0, i64 8
  %5 = load ptr, ptr %4, align 8
  %6 = getelementptr inbounds nuw i8, ptr %5, i64 8
  %7 = tail call i32 @pthread_mutex_lock(ptr noundef nonnull %6) #22
  %.not = icmp eq i32 %7, 0
  br i1 %.not, label %10, label %8

8:                                                ; preds = %2
  %9 = tail call ptr @__errno_location() #24
  store i32 %7, ptr %9, align 4
  tail call void (ptr, ...) @fatal_abort(ptr noundef nonnull @.str.3, ptr noundef nonnull @__func__.hostlist_next_dims) #25
  unreachable

10:                                               ; preds = %2
  %11 = getelementptr inbounds nuw i8, ptr %0, i64 16
  %12 = load i32, ptr %11, align 8
  %13 = load ptr, ptr %4, align 8
  %14 = getelementptr inbounds nuw i8, ptr %13, i64 52
  %15 = load i32, ptr %14, align 4
  %.not.i = icmp slt i32 %12, %15
  br i1 %.not.i, label %16, label %_iterator_advance.exit

16:                                               ; preds = %10
  %17 = getelementptr inbounds nuw i8, ptr %0, i64 32
  %18 = load i32, ptr %17, align 8
  %19 = add nsw i32 %18, 1
  store i32 %19, ptr %17, align 8
  %20 = sext i32 %19 to i64
  %21 = getelementptr inbounds nuw i8, ptr %0, i64 24
  %22 = load ptr, ptr %21, align 8
  %23 = getelementptr inbounds nuw i8, ptr %22, i64 16
  %24 = load i64, ptr %23, align 8
  %25 = getelementptr inbounds nuw i8, ptr %22, i64 8
  %26 = load i64, ptr %25, align 8
  %27 = sub i64 %24, %26
  %28 = icmp ult i64 %27, %20
  br i1 %28, label %29, label %_iterator_advance.exit

29:                                               ; preds = %16
  store i32 0, ptr %17, align 8
  %30 = getelementptr inbounds nuw i8, ptr %13, i64 64
  %31 = load ptr, ptr %30, align 8
  %32 = add nsw i32 %12, 1
  store i32 %32, ptr %11, align 8
  %33 = sext i32 %32 to i64
  %34 = getelementptr inbounds ptr, ptr %31, i64 %33
  %35 = load ptr, ptr %34, align 8
  store ptr %35, ptr %21, align 8
  br label %_iterator_advance.exit

_iterator_advance.exit:                           ; preds = %10, %16, %29
  %36 = phi i32 [ %12, %10 ], [ %12, %16 ], [ %32, %29 ]
  %.not47 = icmp eq i32 %1, 0
  br i1 %.not47, label %37, label %40

37:                                               ; preds = %_iterator_advance.exit
  %38 = tail call zeroext i16 @slurmdb_setup_cluster_dims() #22
  %39 = zext i16 %38 to i32
  %.pre = load i32, ptr %11, align 8
  %.pre60 = load ptr, ptr %4, align 8
  br label %40

40:                                               ; preds = %37, %_iterator_advance.exit
  %41 = phi ptr [ %13, %_iterator_advance.exit ], [ %.pre60, %37 ]
  %42 = phi i32 [ %36, %_iterator_advance.exit ], [ %.pre, %37 ]
  %.039 = phi i32 [ %1, %_iterator_advance.exit ], [ %39, %37 ]
  %43 = getelementptr inbounds nuw i8, ptr %41, i64 52
  %44 = load i32, ptr %43, align 4
  %.not48 = icmp slt i32 %42, %44
  br i1 %.not48, label %45, label %105

45:                                               ; preds = %40
  %46 = getelementptr inbounds nuw i8, ptr %0, i64 24
  %47 = load ptr, ptr %46, align 8
  %48 = load ptr, ptr %47, align 8
  %49 = call i32 (ptr, i64, ptr, ...) @snprintf(ptr noundef nonnull dereferenceable(1) %3, i64 noundef 80, ptr noundef nonnull @.str.11, ptr noundef %48) #22
  %50 = icmp slt i32 %49, 0
  %51 = add nsw i32 %49, %.039
  %52 = icmp sgt i32 %51, 79
  %or.cond52 = select i1 %50, i1 true, i1 %52
  br i1 %or.cond52, label %105, label %53

53:                                               ; preds = %45
  %54 = load ptr, ptr %46, align 8
  %55 = getelementptr inbounds nuw i8, ptr %54, i64 28
  %56 = load i8, ptr %55, align 4, !range !14, !noundef !15
  %57 = trunc nuw i8 %56 to i1
  br i1 %57, label %97, label %58

58:                                               ; preds = %53
  %59 = icmp sgt i32 %.039, 1
  %60 = getelementptr inbounds nuw i8, ptr %54, i64 24
  %61 = load i32, ptr %60, align 8
  %62 = icmp eq i32 %61, %.039
  %or.cond62 = select i1 %59, i1 %62, i1 false
  %63 = getelementptr inbounds nuw i8, ptr %0, i64 32
  br i1 %or.cond62, label %.lr.ph.preheader.i, label %._crit_edge

.lr.ph.preheader.i:                               ; preds = %58
  %64 = zext nneg i32 %.039 to i64
  %65 = tail call ptr @llvm.stacksave.p0()
  %66 = alloca i32, i64 %64, align 16
  %67 = load ptr, ptr %46, align 8
  %68 = getelementptr inbounds nuw i8, ptr %67, i64 8
  %69 = load i64, ptr %68, align 8
  %70 = load i32, ptr %63, align 8
  %71 = trunc i64 %69 to i32
  %72 = add i32 %70, %71
  br label %.lr.ph.i

.lr.ph.i:                                         ; preds = %.lr.ph.i, %.lr.ph.preheader.i
  %indvars.iv.i = phi i64 [ %64, %.lr.ph.preheader.i ], [ %indvars.iv.next.i, %.lr.ph.i ]
  %.012.i = phi i32 [ %72, %.lr.ph.preheader.i ], [ %75, %.lr.ph.i ]
  %indvars.iv.next.i = add nsw i64 %indvars.iv.i, -1
  %73 = srem i32 %.012.i, 36
  %74 = getelementptr inbounds nuw i32, ptr %66, i64 %indvars.iv.next.i
  store i32 %73, ptr %74, align 4
  %75 = sdiv i32 %.012.i, 36
  %76 = icmp samesign ugt i64 %indvars.iv.i, 1
  br i1 %76, label %.lr.ph.i, label %.lr.ph, !llvm.loop !52

.lr.ph:                                           ; preds = %.lr.ph.i
  %77 = load ptr, ptr @alpha_num, align 8
  %78 = zext nneg i32 %49 to i64
  br label %hostlist_parse_int_to_array.exit

hostlist_parse_int_to_array.exit:                 ; preds = %.lr.ph, %hostlist_parse_int_to_array.exit
  %indvars.iv55 = phi i64 [ 0, %.lr.ph ], [ %indvars.iv.next56, %hostlist_parse_int_to_array.exit ]
  %indvars.iv = phi i64 [ %78, %.lr.ph ], [ %indvars.iv.next, %hostlist_parse_int_to_array.exit ]
  %indvars.iv.next56 = add nuw nsw i64 %indvars.iv55, 1
  %79 = getelementptr inbounds nuw i32, ptr %66, i64 %indvars.iv55
  %80 = load i32, ptr %79, align 4
  %81 = sext i32 %80 to i64
  %82 = getelementptr inbounds i8, ptr %77, i64 %81
  %83 = load i8, ptr %82, align 1
  %indvars.iv.next = add nuw nsw i64 %indvars.iv, 1
  %84 = getelementptr inbounds nuw [80 x i8], ptr %3, i64 0, i64 %indvars.iv
  store i8 %83, ptr %84, align 1
  %exitcond.not = icmp eq i64 %indvars.iv.next56, %64
  br i1 %exitcond.not, label %hostlist_parse_int_to_array.exit._crit_edge, label %hostlist_parse_int_to_array.exit, !llvm.loop !66

hostlist_parse_int_to_array.exit._crit_edge:      ; preds = %hostlist_parse_int_to_array.exit
  %85 = and i64 %indvars.iv.next, 4294967295
  %86 = getelementptr inbounds nuw [80 x i8], ptr %3, i64 0, i64 %85
  store i8 0, ptr %86, align 1
  call void @llvm.stackrestore.p0(ptr %65)
  br label %97

._crit_edge:                                      ; preds = %58
  %87 = zext nneg i32 %49 to i64
  %88 = getelementptr inbounds nuw i8, ptr %3, i64 %87
  %89 = sub nsw i32 80, %49
  %90 = sext i32 %89 to i64
  %91 = getelementptr inbounds nuw i8, ptr %54, i64 8
  %92 = load i64, ptr %91, align 8
  %93 = load i32, ptr %63, align 8
  %94 = sext i32 %93 to i64
  %95 = add i64 %92, %94
  %96 = call i32 (ptr, i64, ptr, ...) @snprintf(ptr noundef nonnull %88, i64 noundef %90, ptr noundef nonnull @.str.12, i32 noundef %61, i64 noundef %95) #22
  %or.cond = icmp ugt i32 %96, 79
  br i1 %or.cond, label %105, label %97

97:                                               ; preds = %hostlist_parse_int_to_array.exit._crit_edge, %._crit_edge, %53
  %98 = load ptr, ptr %4, align 8
  %99 = getelementptr inbounds nuw i8, ptr %98, i64 8
  %100 = tail call i32 @pthread_mutex_unlock(ptr noundef nonnull %99) #22
  %.not49 = icmp eq i32 %100, 0
  br i1 %.not49, label %103, label %101

101:                                              ; preds = %97
  %102 = tail call ptr @__errno_location() #24
  store i32 %100, ptr %102, align 4
  tail call void (ptr, ...) @fatal_abort(ptr noundef nonnull @.str.4, ptr noundef nonnull @__func__.hostlist_next_dims) #25
  unreachable

103:                                              ; preds = %97
  %104 = call noalias ptr @strdup(ptr noundef nonnull %3) #22
  br label %111

105:                                              ; preds = %._crit_edge, %45, %40
  %106 = load ptr, ptr %4, align 8
  %107 = getelementptr inbounds nuw i8, ptr %106, i64 8
  %108 = tail call i32 @pthread_mutex_unlock(ptr noundef nonnull %107) #22
  %.not50 = icmp eq i32 %108, 0
  br i1 %.not50, label %111, label %109

109:                                              ; preds = %105
  %110 = tail call ptr @__errno_location() #24
  store i32 %108, ptr %110, align 4
  tail call void (ptr, ...) @fatal_abort(ptr noundef nonnull @.str.4, ptr noundef nonnull @__func__.hostlist_next_dims) #25
  unreachable

111:                                              ; preds = %105, %103
  %.0 = phi ptr [ %104, %103 ], [ null, %105 ]
  call void @llvm.lifetime.end.p0(i64 80, ptr nonnull %3) #22
  ret ptr %.0
}